; Function Attrs: mustprogress sspstrong uwtable
define void @__itt_release_resources() local_unnamed_addr #0 {
  %1 = alloca %union.pthread_mutexattr_t, align 4
  %2 = icmp ne ptr @pthread_mutex_init, null
  %3 = icmp ne ptr @pthread_mutex_lock, null
  %or.cond = and i1 %2, %3
  %4 = icmp ne ptr @pthread_mutex_unlock, null
  %or.cond1 = and i1 %4, %or.cond
  %5 = icmp ne ptr @pthread_mutex_destroy, null
  %or.cond2 = and i1 %5, %or.cond1
  %6 = icmp ne ptr @pthread_mutexattr_init, null
  %or.cond3 = and i1 %6, %or.cond2
  %7 = icmp ne ptr @pthread_mutexattr_settype, null
  %or.cond4 = and i1 %7, %or.cond3
  %8 = icmp ne ptr @pthread_mutexattr_destroy, null
  %or.cond5 = and i1 %8, %or.cond4
  %9 = icmp ne ptr @pthread_self, null
  %or.cond6 = and i1 %9, %or.cond5
  br i1 %or.cond6, label %10, label %.thread

10:                                               ; preds = %0
  %11 = load volatile i64, ptr getelementptr inbounds nuw (i8, ptr @__itt__ittapi_global, i64 40), align 8, !tbaa !22
  %.not = icmp eq i64 %11, 0
  br i1 %.not, label %12, label %.loopexit

12:                                               ; preds = %10
  %13 = cmpxchg ptr getelementptr inbounds nuw (i8, ptr @__itt__ittapi_global, i64 48), i64 1, i64 0 seq_cst seq_cst, align 8
  %14 = extractvalue { i64, i1 } %13, 0
  %15 = icmp eq i64 %14, 0
  br i1 %15, label %17, label %.preheader

.preheader:                                       ; preds = %12
  %16 = load volatile i64, ptr getelementptr inbounds nuw (i8, ptr @__itt__ittapi_global, i64 40), align 8, !tbaa !22
  %.not3139 = icmp eq i64 %16, 0
  br i1 %.not3139, label %.lr.ph, label %.loopexit

17:                                               ; preds = %12
  call void @llvm.lifetime.start.p0(i64 4, ptr nonnull %1) #17
  %18 = call i32 @pthread_mutexattr_init(ptr noundef nonnull %1) #17
  %.not32 = icmp eq i32 %18, 0
  br i1 %.not32, label %20, label %19

19:                                               ; preds = %17
  call void (i32, ...) @_ZL18__itt_report_erroriz(i32 noundef 6, ptr noundef nonnull @.str, i32 noundef %18)
  br label %20

20:                                               ; preds = %19, %17
  %21 = call i32 @pthread_mutexattr_settype(ptr noundef nonnull %1, i32 noundef 1) #17
  %.not33 = icmp eq i32 %21, 0
  br i1 %.not33, label %23, label %22

22:                                               ; preds = %20
  call void (i32, ...) @_ZL18__itt_report_erroriz(i32 noundef 6, ptr noundef nonnull @.str.1, i32 noundef %21)
  br label %23

23:                                               ; preds = %22, %20
  %24 = call i32 @pthread_mutex_init(ptr noundef nonnull getelementptr inbounds nuw (i8, ptr @__itt__ittapi_global, i64 56), ptr noundef nonnull %1) #17
  %.not34 = icmp eq i32 %24, 0
  br i1 %.not34, label %26, label %25

25:                                               ; preds = %23
  call void (i32, ...) @_ZL18__itt_report_erroriz(i32 noundef 6, ptr noundef nonnull @.str.2, i32 noundef %24)
  br label %26

26:                                               ; preds = %25, %23
  %27 = call i32 @pthread_mutexattr_destroy(ptr noundef nonnull %1) #17
  %.not35 = icmp eq i32 %27, 0
  br i1 %.not35, label %29, label %28

28:                                               ; preds = %26
  call void (i32, ...) @_ZL18__itt_report_erroriz(i32 noundef 6, ptr noundef nonnull @.str.3, i32 noundef %27)
  br label %29

29:                                               ; preds = %28, %26
  call void @llvm.lifetime.end.p0(i64 4, ptr nonnull %1) #17
  store volatile i64 1, ptr getelementptr inbounds nuw (i8, ptr @__itt__ittapi_global, i64 40), align 8, !tbaa !22
  br label %.loopexit

.lr.ph:                                           ; preds = %.preheader, %.lr.ph
  %30 = tail call i32 @sched_yield() #17
  %31 = load volatile i64, ptr getelementptr inbounds nuw (i8, ptr @__itt__ittapi_global, i64 40), align 8, !tbaa !22
  %.not31 = icmp eq i64 %31, 0
  br i1 %.not31, label %.lr.ph, label %.loopexit, !llvm.loop !136

.thread:                                          ; preds = %0
  tail call fastcc void @_ZL30__itt_free_allocated_resourcesv()
  br label %.critedge38

.loopexit:                                        ; preds = %.lr.ph, %.preheader, %29, %10
  %32 = call i32 @pthread_mutex_lock(ptr noundef nonnull getelementptr inbounds nuw (i8, ptr @__itt__ittapi_global, i64 56)) #17
  call fastcc void @_ZL30__itt_free_allocated_resourcesv()
  %33 = call i32 @pthread_mutex_unlock(ptr noundef nonnull getelementptr inbounds nuw (i8, ptr @__itt__ittapi_global, i64 56)) #17
  %34 = load volatile i64, ptr getelementptr inbounds nuw (i8, ptr @__itt__ittapi_global, i64 40), align 8, !tbaa !22
  %.not36 = icmp eq i64 %34, 0
  br i1 %.not36, label %.critedge38, label %35

35:                                               ; preds = %.loopexit
  %36 = cmpxchg ptr getelementptr inbounds nuw (i8, ptr @__itt__ittapi_global, i64 48), i64 0, i64 1 seq_cst seq_cst, align 8
  %37 = extractvalue { i64, i1 } %36, 0
  %38 = icmp eq i64 %37, 1
  br i1 %38, label %39, label %.critedge38

39:                                               ; preds = %35
  %40 = call i32 @pthread_mutex_destroy(ptr noundef nonnull getelementptr inbounds nuw (i8, ptr @__itt__ittapi_global, i64 56)) #17
  store volatile i64 0, ptr getelementptr inbounds nuw (i8, ptr @__itt__ittapi_global, i64 40), align 8, !tbaa !22
  br label %.critedge38

.critedge38:                                      ; preds = %.thread, %.loopexit, %39, %35
  ret void
}